target datalayout = "e-m:e-p270:32:32-p271:32:32-p272:64:64-i64:64-i128:128-f80:128-n8:16:32:64-S128"
target triple = "x86_64-pc-linux-gnu"

%union._sa_t = type { %struct.sockaddr_in6, [84 x i8] }
%struct.sockaddr_in6 = type { i16, i16, i32, %struct.in6_addr, i32 }
%struct.in6_addr = type { %union.anon }
%union.anon = type { [4 x i32] }
%struct.sockaddr_in = type { i16, i16, %struct.in_addr, [8 x i8] }
%struct.in_addr = type { i32 }

@client_sa = internal global %union._sa_t zeroinitializer, align 4
@fcgi_get_last_client_ip.str = internal global [46 x i8] zeroinitializer, align 16

; Function Attrs: nounwind uwtable
define hidden ptr @fcgi_get_last_client_ip() #0 {
  %1 = alloca ptr, align 8
  %2 = alloca ptr, align 8
  %3 = alloca i32, align 4
  %4 = load i16, ptr @client_sa, align 4
  %5 = zext i16 %4 to i32
  %6 = icmp eq i32 %5, 2
  br i1 %6, label %7, label %11

7:                                                ; preds = %0
  %8 = load i16, ptr @client_sa, align 4
  %9 = zext i16 %8 to i32
  %10 = call ptr @inet_ntop(i32 noundef %9, ptr noundef getelementptr inbounds (%struct.sockaddr_in, ptr @client_sa, i32 0, i32 2), ptr noundef @fcgi_get_last_client_ip.str, i32 noundef 46) #13
  store ptr %10, ptr %1, align 8
  br label %50

11:                                               ; preds = %0
  %12 = load i16, ptr @client_sa, align 4
  %13 = zext i16 %12 to i32
  %14 = icmp eq i32 %13, 10
  br i1 %14, label %15, label %41

15:                                               ; preds = %11
  store ptr getelementptr inbounds (%struct.sockaddr_in6, ptr @client_sa, i32 0, i32 3), ptr %2, align 8
  %16 = load ptr, ptr %2, align 8
  %17 = getelementptr inbounds %struct.in6_addr, ptr %16, i32 0, i32 0
  %18 = getelementptr inbounds [4 x i32], ptr %17, i64 0, i64 0
  %19 = load i32, ptr %18, align 4
  %20 = icmp eq i32 %19, 0
  br i1 %20, label %21, label %34

21:                                               ; preds = %15
  %22 = load ptr, ptr %2, align 8
  %23 = getelementptr inbounds %struct.in6_addr, ptr %22, i32 0, i32 0
  %24 = getelementptr inbounds [4 x i32], ptr %23, i64 0, i64 1
  %25 = load i32, ptr %24, align 4
  %26 = icmp eq i32 %25, 0
  br i1 %26, label %27, label %34

27:                                               ; preds = %21
  %28 = load ptr, ptr %2, align 8
  %29 = getelementptr inbounds %struct.in6_addr, ptr %28, i32 0, i32 0
  %30 = getelementptr inbounds [4 x i32], ptr %29, i64 0, i64 2
  %31 = load i32, ptr %30, align 4
  %32 = call i32 @htonl(i32 noundef 65535) #14
  %33 = icmp eq i32 %31, %32
  br label %34

34:                                               ; preds = %27, %21, %15
  %35 = phi i1 [ false, %21 ], [ false, %15 ], [ %33, %27 ]
  %36 = zext i1 %35 to i32
  store i32 %36, ptr %3, align 4
  %37 = load i32, ptr %3, align 4
  %38 = icmp ne i32 %37, 0
  br i1 %38, label %39, label %41

39:                                               ; preds = %34
  %40 = call ptr @inet_ntop(i32 noundef 2, ptr noundef getelementptr inbounds (i8, ptr getelementptr inbounds (%struct.sockaddr_in6, ptr @client_sa, i32 0, i32 3), i64 12), ptr noundef @fcgi_get_last_client_ip.str, i32 noundef 46) #13
  store ptr %40, ptr %1, align 8
  br label %50

41:                                               ; preds = %34, %11
  %42 = load i16, ptr @client_sa, align 4
  %43 = zext i16 %42 to i32
  %44 = icmp eq i32 %43, 10
  br i1 %44, label %45, label %49

45:                                               ; preds = %41
  %46 = load i16, ptr @client_sa, align 4
  %47 = zext i16 %46 to i32
  %48 = call ptr @inet_ntop(i32 noundef %47, ptr noundef getelementptr inbounds (%struct.sockaddr_in6, ptr @client_sa, i32 0, i32 3), ptr noundef @fcgi_get_last_client_ip.str, i32 noundef 46) #13
  store ptr %48, ptr %1, align 8
  br label %50

49:                                               ; preds = %41
  store ptr null, ptr %1, align 8
  br label %50

50:                                               ; preds = %49, %45, %39, %7
  %51 = load ptr, ptr %1, align 8
  ret ptr %51
}