; Function Attrs: nounwind uwtable
define hidden ptr @fcgi_get_last_client_ip() local_unnamed_addr #3 {
  %1 = load i16, ptr @client_sa, align 4
  switch i16 %1, label %.critedge [
    i16 2, label %2
    i16 10, label %4
  ]

2:                                                ; preds = %0
  %3 = tail call ptr @inet_ntop(i32 noundef 2, ptr noundef nonnull getelementptr inbounds (%union._sa_t, ptr @client_sa, i64 0, i32 0, i32 2), ptr noundef nonnull @fcgi_get_last_client_ip.str, i32 noundef 46) #32
  br label %.critedge

4:                                                ; preds = %0
  %5 = load i32, ptr getelementptr inbounds (%union._sa_t, ptr @client_sa, i64 0, i32 0, i32 3), align 4
  %6 = icmp eq i32 %5, 0
  %7 = load i32, ptr getelementptr inbounds (%union._sa_t, ptr @client_sa, i64 0, i32 0, i32 3, i32 0, i32 0, i64 1), align 4
  %8 = icmp eq i32 %7, 0
  %or.cond = select i1 %6, i1 %8, i1 false
  br i1 %or.cond, label %9, label %15

9:                                                ; preds = %4
  %10 = load i32, ptr getelementptr inbounds (%union._sa_t, ptr @client_sa, i64 0, i32 0, i32 3, i32 0, i32 0, i64 2), align 4
  %11 = tail call i32 @htonl(i32 noundef 65535) #34
  %12 = icmp eq i32 %10, %11
  br i1 %12, label %13, label %15

13:                                               ; preds = %9
  %14 = tail call ptr @inet_ntop(i32 noundef 2, ptr noundef nonnull getelementptr inbounds (%union._sa_t, ptr @client_sa, i64 0, i32 0, i32 3, i32 0, i32 0, i64 3), ptr noundef nonnull @fcgi_get_last_client_ip.str, i32 noundef 46) #32
  br label %.critedge

15:                                               ; preds = %4, %9
  %16 = tail call ptr @inet_ntop(i32 noundef 10, ptr noundef nonnull getelementptr inbounds (%union._sa_t, ptr @client_sa, i64 0, i32 0, i32 3), ptr noundef nonnull @fcgi_get_last_client_ip.str, i32 noundef 46) #32
  br label %.critedge

.critedge:                                        ; preds = %0, %15, %13, %2
  %.0 = phi ptr [ %3, %2 ], [ %14, %13 ], [ %16, %15 ], [ null, %0 ]
  ret ptr %.0
}